; ModuleID = '35/222.c'
source_filename = "35/222.c"
target datalayout = "e-m:e-p270:32:32-p271:32:32-p272:64:64-i64:64-f80:128-n8:16:32:64-S128"
target triple = "x86_64-pc-linux-gnu"

@.str = private unnamed_addr constant [6 x i8] c"%d,%d\00", align 1
@.str.1 = private unnamed_addr constant [3 x i8] c"%d\00", align 1
@.str.2 = private unnamed_addr constant [6 x i8] c"%d+%d\00", align 1
@.str.3 = private unnamed_addr constant [4 x i8] c"No\0A\00", align 1

; Function Attrs: noinline nounwind uwtable
define dso_local void @main() #0 {
  %1 = alloca [8 x [8 x i32]], align 16
  %2 = alloca [8 x [8 x i32]], align 16
  %3 = alloca i32, align 4
  %4 = alloca i32, align 4
  %5 = alloca i32, align 4
  %6 = alloca i32, align 4
  %7 = alloca i32, align 4
  %8 = alloca i32, align 4
  %9 = bitcast [8 x [8 x i32]]* %2 to i8*
  call void @llvm.memset.p0i8.i64(i8* align 16 %9, i8 0, i64 256, i1 false)
  store i32 0, i32* %8, align 4
  %10 = call i32 (i8*, ...) @__isoc99_scanf(i8* getelementptr inbounds ([6 x i8], [6 x i8]* @.str, i64 0, i64 0), i32* %3, i32* %4)
  store i32 0, i32* %5, align 4
  br label %11

11:                                               ; preds = %38, %0
  %12 = load i32, i32* %5, align 4
  %13 = load i32, i32* %3, align 4
  %14 = icmp slt i32 %12, %13
  br i1 %14, label %15, label %41

15:                                               ; preds = %11
  store i32 0, i32* %6, align 4
  br label %16

16:                                               ; preds = %34, %15
  %17 = load i32, i32* %6, align 4
  %18 = load i32, i32* %4, align 4
  %19 = icmp slt i32 %17, %18
  br i1 %19, label %20, label %37

20:                                               ; preds = %16
  %21 = load i32, i32* %5, align 4
  %22 = sext i32 %21 to i64
  %23 = getelementptr inbounds [8 x [8 x i32]], [8 x [8 x i32]]* %1, i64 0, i64 %22
  %24 = load i32, i32* %6, align 4
  %25 = sext i32 %24 to i64
  %26 = getelementptr inbounds [8 x i32], [8 x i32]* %23, i64 0, i64 %25
  %27 = call i32 (i8*, ...) @__isoc99_scanf(i8* getelementptr inbounds ([3 x i8], [3 x i8]* @.str.1, i64 0, i64 0), i32* %26)
  %28 = load i32, i32* %5, align 4
  %29 = sext i32 %28 to i64
  %30 = getelementptr inbounds [8 x [8 x i32]], [8 x [8 x i32]]* %2, i64 0, i64 %29
  %31 = load i32, i32* %6, align 4
  %32 = sext i32 %31 to i64
  %33 = getelementptr inbounds [8 x i32], [8 x i32]* %30, i64 0, i64 %32
  store i32 1, i32* %33, align 4
  br label %34

34:                                               ; preds = %20
  %35 = load i32, i32* %6, align 4
  %36 = add nsw i32 %35, 1
  store i32 %36, i32* %6, align 4
  br label %16

37:                                               ; preds = %16
  br label %38

38:                                               ; preds = %37
  %39 = load i32, i32* %5, align 4
  %40 = add nsw i32 %39, 1
  store i32 %40, i32* %5, align 4
  br label %11

41:                                               ; preds = %11
  store i32 0, i32* %5, align 4
  br label %42

42:                                               ; preds = %120, %41
  %43 = load i32, i32* %5, align 4
  %44 = load i32, i32* %3, align 4
  %45 = icmp slt i32 %43, %44
  br i1 %45, label %46, label %123

46:                                               ; preds = %42
  store i32 0, i32* %6, align 4
  br label %47

47:                                               ; preds = %116, %46
  %48 = load i32, i32* %6, align 4
  %49 = load i32, i32* %4, align 4
  %50 = icmp slt i32 %48, %49
  br i1 %50, label %51, label %119

51:                                               ; preds = %47
  store i32 0, i32* %7, align 4
  br label %52

52:                                               ; preds = %80, %51
  %53 = load i32, i32* %7, align 4
  %54 = load i32, i32* %4, align 4
  %55 = icmp slt i32 %53, %54
  br i1 %55, label %56, label %83

56:                                               ; preds = %52
  %57 = load i32, i32* %5, align 4
  %58 = sext i32 %57 to i64
  %59 = getelementptr inbounds [8 x [8 x i32]], [8 x [8 x i32]]* %1, i64 0, i64 %58
  %60 = load i32, i32* %7, align 4
  %61 = sext i32 %60 to i64
  %62 = getelementptr inbounds [8 x i32], [8 x i32]* %59, i64 0, i64 %61
  %63 = load i32, i32* %62, align 4
  %64 = load i32, i32* %5, align 4
  %65 = sext i32 %64 to i64
  %66 = getelementptr inbounds [8 x [8 x i32]], [8 x [8 x i32]]* %1, i64 0, i64 %65
  %67 = load i32, i32* %6, align 4
  %68 = sext i32 %67 to i64
  %69 = getelementptr inbounds [8 x i32], [8 x i32]* %66, i64 0, i64 %68
  %70 = load i32, i32* %69, align 4
  %71 = icmp sgt i32 %63, %70
  br i1 %71, label %72, label %79

72:                                               ; preds = %56
  %73 = load i32, i32* %5, align 4
  %74 = sext i32 %73 to i64
  %75 = getelementptr inbounds [8 x [8 x i32]], [8 x [8 x i32]]* %2, i64 0, i64 %74
  %76 = load i32, i32* %6, align 4
  %77 = sext i32 %76 to i64
  %78 = getelementptr inbounds [8 x i32], [8 x i32]* %75, i64 0, i64 %77
  store i32 0, i32* %78, align 4
  br label %79

79:                                               ; preds = %72, %56
  br label %80

80:                                               ; preds = %79
  %81 = load i32, i32* %7, align 4
  %82 = add nsw i32 %81, 1
  store i32 %82, i32* %7, align 4
  br label %52

83:                                               ; preds = %52
  store i32 0, i32* %7, align 4
  br label %84

84:                                               ; preds = %112, %83
  %85 = load i32, i32* %7, align 4
  %86 = load i32, i32* %3, align 4
  %87 = icmp slt i32 %85, %86
  br i1 %87, label %88, label %115

88:                                               ; preds = %84
  %89 = load i32, i32* %7, align 4
  %90 = sext i32 %89 to i64
  %91 = getelementptr inbounds [8 x [8 x i32]], [8 x [8 x i32]]* %1, i64 0, i64 %90
  %92 = load i32, i32* %6, align 4
  %93 = sext i32 %92 to i64
  %94 = getelementptr inbounds [8 x i32], [8 x i32]* %91, i64 0, i64 %93
  %95 = load i32, i32* %94, align 4
  %96 = load i32, i32* %5, align 4
  %97 = sext i32 %96 to i64
  %98 = getelementptr inbounds [8 x [8 x i32]], [8 x [8 x i32]]* %1, i64 0, i64 %97
  %99 = load i32, i32* %6, align 4
  %100 = sext i32 %99 to i64
  %101 = getelementptr inbounds [8 x i32], [8 x i32]* %98, i64 0, i64 %100
  %102 = load i32, i32* %101, align 4
  %103 = icmp slt i32 %95, %102
  br i1 %103, label %104, label %111

104:                                              ; preds = %88
  %105 = load i32, i32* %5, align 4
  %106 = sext i32 %105 to i64
  %107 = getelementptr inbounds [8 x [8 x i32]], [8 x [8 x i32]]* %2, i64 0, i64 %106
  %108 = load i32, i32* %6, align 4
  %109 = sext i32 %108 to i64
  %110 = getelementptr inbounds [8 x i32], [8 x i32]* %107, i64 0, i64 %109
  store i32 0, i32* %110, align 4
  br label %111

111:                                              ; preds = %104, %88
  br label %112

112:                                              ; preds = %111
  %113 = load i32, i32* %7, align 4
  %114 = add nsw i32 %113, 1
  store i32 %114, i32* %7, align 4
  br label %84

115:                                              ; preds = %84
  br label %116

116:                                              ; preds = %115
  %117 = load i32, i32* %6, align 4
  %118 = add nsw i32 %117, 1
  store i32 %118, i32* %6, align 4
  br label %47

119:                                              ; preds = %47
  br label %120

120:                                              ; preds = %119
  %121 = load i32, i32* %5, align 4
  %122 = add nsw i32 %121, 1
  store i32 %122, i32* %5, align 4
  br label %42

123:                                              ; preds = %42
  store i32 0, i32* %5, align 4
  br label %124

124:                                              ; preds = %151, %123
  %125 = load i32, i32* %5, align 4
  %126 = load i32, i32* %3, align 4
  %127 = icmp slt i32 %125, %126
  br i1 %127, label %128, label %154

128:                                              ; preds = %124
  store i32 0, i32* %6, align 4
  br label %129

129:                                              ; preds = %147, %128
  %130 = load i32, i32* %6, align 4
  %131 = load i32, i32* %4, align 4
  %132 = icmp slt i32 %130, %131
  br i1 %132, label %133, label %150

133:                                              ; preds = %129
  %134 = load i32, i32* %5, align 4
  %135 = sext i32 %134 to i64
  %136 = getelementptr inbounds [8 x [8 x i32]], [8 x [8 x i32]]* %2, i64 0, i64 %135
  %137 = load i32, i32* %6, align 4
  %138 = sext i32 %137 to i64
  %139 = getelementptr inbounds [8 x i32], [8 x i32]* %136, i64 0, i64 %138
  %140 = load i32, i32* %139, align 4
  %141 = icmp eq i32 %140, 1
  br i1 %141, label %142, label %146

142:                                              ; preds = %133
  %143 = load i32, i32* %5, align 4
  %144 = load i32, i32* %6, align 4
  %145 = call i32 (i8*, ...) @printf(i8* getelementptr inbounds ([6 x i8], [6 x i8]* @.str.2, i64 0, i64 0), i32 %143, i32 %144)
  store i32 1, i32* %8, align 4
  br label %146

146:                                              ; preds = %142, %133
  br label %147

147:                                              ; preds = %146
  %148 = load i32, i32* %6, align 4
  %149 = add nsw i32 %148, 1
  store i32 %149, i32* %6, align 4
  br label %129

150:                                              ; preds = %129
  br label %151

151:                                              ; preds = %150
  %152 = load i32, i32* %5, align 4
  %153 = add nsw i32 %152, 1
  store i32 %153, i32* %5, align 4
  br label %124

154:                                              ; preds = %124
  %155 = load i32, i32* %8, align 4
  %156 = icmp eq i32 %155, 0
  br i1 %156, label %157, label %159

157:                                              ; preds = %154
  %158 = call i32 (i8*, ...) @printf(i8* getelementptr inbounds ([4 x i8], [4 x i8]* @.str.3, i64 0, i64 0))
  br label %159

159:                                              ; preds = %157, %154
  ret void
}

; Function Attrs: argmemonly nounwind willreturn
declare void @llvm.memset.p0i8.i64(i8* nocapture writeonly, i8, i64, i1 immarg) #1

declare dso_local i32 @__isoc99_scanf(i8*, ...) #2

declare dso_local i32 @printf(i8*, ...) #2


!llvm.module.flags = !{!0}
!llvm.ident = !{!1}

!0 = !{i32 1, !"wchar_size", i32 4}
!1 = !{!"clang version 10.0.0-4ubuntu1 "}
